target datalayout = "e-m:e-p270:32:32-p271:32:32-p272:64:64-i64:64-i128:128-f80:128-n8:16:32:64-S128"
target triple = "x86_64-pc-linux-gnu"

%"class.std::__cxx11::basic_string" = type { %"struct.std::__cxx11::basic_string<char>::_Alloc_hider", i64, %union.anon }
%"struct.std::__cxx11::basic_string<char>::_Alloc_hider" = type { ptr }
%union.anon = type { i64, [8 x i8] }
%"class.std::allocator" = type { i8 }
%struct.wordexp_t = type { i64, ptr, i64 }

@.str.3 = private unnamed_addr constant [1 x i8] zeroinitializer, align 1

; Function Attrs: mustprogress uwtable
define dso_local void @_ZN8tinygltf14ExpandFilePathERKNSt7__cxx1112basic_stringIcSt11char_traitsIcESaIcEEEPv(ptr dead_on_unwind noalias writable sret(%"class.std::__cxx11::basic_string") align 8 %0, ptr noundef nonnull align 8 dereferenceable(32) %1, ptr noundef %2) #4 personality ptr @__gxx_personality_v0 {
  %4 = alloca ptr, align 8
  %5 = alloca ptr, align 8
  %6 = alloca ptr, align 8
  %7 = alloca %"class.std::__cxx11::basic_string", align 8
  %8 = alloca %struct.wordexp_t, align 8
  %9 = alloca %"class.std::allocator", align 1
  %10 = alloca ptr, align 8
  %11 = alloca i32, align 4
  %12 = alloca i32, align 4
  %13 = alloca i32, align 4
  %14 = alloca %"class.std::__cxx11::basic_string", align 8
  %15 = alloca %"class.std::allocator", align 1
  store ptr %0, ptr %4, align 8
  store ptr %1, ptr %5, align 8
  store ptr %2, ptr %6, align 8
  call void @_ZNSt7__cxx1112basic_stringIcSt11char_traitsIcESaIcEEC1Ev(ptr noundef nonnull align 8 dereferenceable(32) %7) #3
  %16 = load ptr, ptr %5, align 8
  %17 = call noundef zeroext i1 @_ZNKSt7__cxx1112basic_stringIcSt11char_traitsIcESaIcEE5emptyEv(ptr noundef nonnull align 8 dereferenceable(32) %16) #3
  br i1 %17, label %18, label %24

18:                                               ; preds = %3
  call void @_ZNSaIcEC1Ev(ptr noundef nonnull align 1 dereferenceable(1) %9) #3
  invoke void @_ZNSt7__cxx1112basic_stringIcSt11char_traitsIcESaIcEEC1EPKcRKS3_(ptr noundef nonnull align 8 dereferenceable(32) %0, ptr noundef @.str.3, ptr noundef nonnull align 1 dereferenceable(1) %9)
          to label %19 unwind label %20

19:                                               ; preds = %18
  call void @_ZNSaIcED1Ev(ptr noundef nonnull align 1 dereferenceable(1) %9) #3
  store i32 1, ptr %12, align 4
  br label %59

20:                                               ; preds = %18
  %21 = landingpad { ptr, i32 }
          cleanup
  %22 = extractvalue { ptr, i32 } %21, 0
  store ptr %22, ptr %10, align 8
  %23 = extractvalue { ptr, i32 } %21, 1
  store i32 %23, ptr %11, align 4
  call void @_ZNSaIcED1Ev(ptr noundef nonnull align 1 dereferenceable(1) %9) #3
  br label %60

24:                                               ; preds = %3
  %25 = load ptr, ptr %5, align 8
  %26 = call noundef ptr @_ZNKSt7__cxx1112basic_stringIcSt11char_traitsIcESaIcEE5c_strEv(ptr noundef nonnull align 8 dereferenceable(32) %25) #3
  %27 = invoke i32 @wordexp(ptr noundef %26, ptr noundef %8, i32 noundef 0)
          to label %28 unwind label %35

28:                                               ; preds = %24
  store i32 %27, ptr %13, align 4
  %29 = load i32, ptr %13, align 4
  %30 = icmp ne i32 %29, 0
  br i1 %30, label %31, label %39

31:                                               ; preds = %28
  %32 = load ptr, ptr %5, align 8
  %33 = invoke noundef nonnull align 8 dereferenceable(32) ptr @_ZNSt7__cxx1112basic_stringIcSt11char_traitsIcESaIcEEaSERKS4_(ptr noundef nonnull align 8 dereferenceable(32) %7, ptr noundef nonnull align 8 dereferenceable(32) %32)
          to label %34 unwind label %35

34:                                               ; preds = %31
  call void @_ZNSt7__cxx1112basic_stringIcSt11char_traitsIcESaIcEEC1EOS4_(ptr noundef nonnull align 8 dereferenceable(32) %0, ptr noundef nonnull align 8 dereferenceable(32) %7) #3
  store i32 1, ptr %12, align 4
  br label %59

35:                                               ; preds = %54, %31, %24
  %36 = landingpad { ptr, i32 }
          cleanup
  %37 = extractvalue { ptr, i32 } %36, 0
  store ptr %37, ptr %10, align 8
  %38 = extractvalue { ptr, i32 } %36, 1
  store i32 %38, ptr %11, align 4
  br label %60

39:                                               ; preds = %28
  %40 = getelementptr inbounds %struct.wordexp_t, ptr %8, i32 0, i32 1
  %41 = load ptr, ptr %40, align 8
  %42 = icmp ne ptr %41, null
  br i1 %42, label %43, label %54

43:                                               ; preds = %39
  %44 = getelementptr inbounds %struct.wordexp_t, ptr %8, i32 0, i32 1
  %45 = load ptr, ptr %44, align 8
  %46 = getelementptr inbounds ptr, ptr %45, i64 0
  %47 = load ptr, ptr %46, align 8
  call void @_ZNSaIcEC1Ev(ptr noundef nonnull align 1 dereferenceable(1) %15) #3
  invoke void @_ZNSt7__cxx1112basic_stringIcSt11char_traitsIcESaIcEEC1EPKcRKS3_(ptr noundef nonnull align 8 dereferenceable(32) %14, ptr noundef %47, ptr noundef nonnull align 1 dereferenceable(1) %15)
          to label %48 unwind label %50

48:                                               ; preds = %43
  %49 = call noundef nonnull align 8 dereferenceable(32) ptr @_ZNSt7__cxx1112basic_stringIcSt11char_traitsIcESaIcEEaSEOS4_(ptr noundef nonnull align 8 dereferenceable(32) %7, ptr noundef nonnull align 8 dereferenceable(32) %14) #3
  call void @_ZNSt7__cxx1112basic_stringIcSt11char_traitsIcESaIcEED1Ev(ptr noundef nonnull align 8 dereferenceable(32) %14) #3
  call void @_ZNSaIcED1Ev(ptr noundef nonnull align 1 dereferenceable(1) %15) #3
  call void @wordfree(ptr noundef %8) #3
  br label %58

50:                                               ; preds = %43
  %51 = landingpad { ptr, i32 }
          cleanup
  %52 = extractvalue { ptr, i32 } %51, 0
  store ptr %52, ptr %10, align 8
  %53 = extractvalue { ptr, i32 } %51, 1
  store i32 %53, ptr %11, align 4
  call void @_ZNSaIcED1Ev(ptr noundef nonnull align 1 dereferenceable(1) %15) #3
  br label %60

54:                                               ; preds = %39
  %55 = load ptr, ptr %5, align 8
  %56 = invoke noundef nonnull align 8 dereferenceable(32) ptr @_ZNSt7__cxx1112basic_stringIcSt11char_traitsIcESaIcEEaSERKS4_(ptr noundef nonnull align 8 dereferenceable(32) %7, ptr noundef nonnull align 8 dereferenceable(32) %55)
          to label %57 unwind label %35

57:                                               ; preds = %54
  br label %58

58:                                               ; preds = %57, %48
  call void @_ZNSt7__cxx1112basic_stringIcSt11char_traitsIcESaIcEEC1EOS4_(ptr noundef nonnull align 8 dereferenceable(32) %0, ptr noundef nonnull align 8 dereferenceable(32) %7) #3
  store i32 1, ptr %12, align 4
  br label %59

59:                                               ; preds = %58, %34, %19
  call void @_ZNSt7__cxx1112basic_stringIcSt11char_traitsIcESaIcEED1Ev(ptr noundef nonnull align 8 dereferenceable(32) %7) #3
  ret void

60:                                               ; preds = %50, %35, %20
  call void @_ZNSt7__cxx1112basic_stringIcSt11char_traitsIcESaIcEED1Ev(ptr noundef nonnull align 8 dereferenceable(32) %7) #3
  br label %61

61:                                               ; preds = %60
  %62 = load ptr, ptr %10, align 8
  %63 = load i32, ptr %11, align 4
  %64 = insertvalue { ptr, i32 } poison, ptr %62, 0
  %65 = insertvalue { ptr, i32 } %64, i32 %63, 1
  resume { ptr, i32 } %65
}